target datalayout = "e-m:e-p270:32:32-p271:32:32-p272:64:64-i64:64-i128:128-f80:128-n8:16:32:64-S128"
target triple = "x86_64-unknown-linux-gnu"

%struct.SCSISense = type { i8, i8, i8 }
%struct.SCSIDiskState = type { %struct.SCSIDevice, i32, i8, i8, i8, i16, i64, i64, i32, ptr, ptr, ptr, ptr, ptr, ptr, i8, i8, i16 }
%struct.SCSIDevice = type { %struct.DeviceState, ptr, ptr, i32, %struct.BlockConf, %struct.SCSISense, i8, [252 x i8], i32, %union.anon, i32, i32, i32, i32, i64, i64, i64, i32, i32, i32, i8, i8 }
%struct.DeviceState = type { %struct.Object, ptr, ptr, i8, i8, i64, ptr, i32, i8, ptr, %struct.NamedGPIOListHead, %struct.NamedClockListHead, %struct.BusStateHead, i32, i32, i32, %struct.ResettableState, ptr, %struct.MemReentrancyGuard }
%struct.Object = type { ptr, ptr, ptr, i32, ptr }
%struct.NamedGPIOListHead = type { ptr }
%struct.NamedClockListHead = type { ptr }
%struct.BusStateHead = type { ptr }
%struct.ResettableState = type { i32, i8, i8 }
%struct.MemReentrancyGuard = type { i8 }
%struct.BlockConf = type { ptr, i32, i32, i32, i32, i32, i32, i32, i32, i32, i32, i32, i32, i32, i32, i8, i32, i32, i32, i32 }
%union.anon = type { %struct.QTailQLink }
%struct.QTailQLink = type { ptr, ptr }
%struct.SCSIDiskReq = type { %struct.SCSIRequest, i64, i32, i32, i8, i8, %struct.iovec, %struct.QEMUIOVector, %struct.BlockAcctCookie }
%struct.SCSIRequest = type { ptr, ptr, ptr, i32, i32, i32, i16, i16, ptr, i64, %struct.SCSICommand, %struct.NotifierList, [252 x i8], i32, i8, i8, i8, i8, ptr, ptr, %union.anon.0 }
%struct.SCSICommand = type { [16 x i8], i32, i64, i64, i32 }
%struct.NotifierList = type { %struct.anon }
%struct.anon = type { ptr }
%union.anon.0 = type { %struct.QTailQLink }
%struct.iovec = type { ptr, i64 }
%struct.QEMUIOVector = type { ptr, i32, %union.anon.1 }
%union.anon.1 = type { %struct.anon.2 }
%struct.anon.2 = type { i32, %struct.iovec }
%struct.BlockAcctCookie = type { i64, i64, i32 }
%struct.UnmapCBData = type { ptr, ptr, i32 }

@.str.5 = private unnamed_addr constant [28 x i8] c"../qemu/hw/scsi/scsi-disk.c\00", align 1
@sense_code_LBA_OUT_OF_RANGE = external constant %struct.SCSISense, align 1
@.str.26 = private unnamed_addr constant [21 x i8] c"r->req.aiocb == NULL\00", align 1
@__PRETTY_FUNCTION__.scsi_unmap_complete_noio = private unnamed_addr constant [50 x i8] c"void scsi_unmap_complete_noio(UnmapCBData *, int)\00", align 1

; Function Attrs: nounwind sspstrong uwtable
define internal i32 @ldl_he_p(ptr noundef %ptr) #0 {
entry:
  %ptr.addr = alloca ptr, align 8
  %r = alloca i32, align 4
  store ptr %ptr, ptr %ptr.addr, align 8
  %0 = load ptr, ptr %ptr.addr, align 8
  call void @llvm.memcpy.p0.p0.i64(ptr align 4 %r, ptr align 1 %0, i64 4, i1 false)
  %1 = load i32, ptr %r, align 4
  ret i32 %1
}

; Function Attrs: nounwind sspstrong uwtable
define internal i64 @ldq_he_p(ptr noundef %ptr) #0 {
entry:
  %ptr.addr = alloca ptr, align 8
  %r = alloca i64, align 8
  store ptr %ptr, ptr %ptr.addr, align 8
  %0 = load ptr, ptr %ptr.addr, align 8
  call void @llvm.memcpy.p0.p0.i64(ptr align 8 %r, ptr align 1 %0, i64 8, i1 false)
  %1 = load i64, ptr %r, align 8
  ret i64 %1
}

; Function Attrs: nounwind sspstrong uwtable
define internal zeroext i1 @check_lba_range(ptr noundef %s, i64 noundef %sector_num, i32 noundef %nb_sectors) #0 {
entry:
  %s.addr = alloca ptr, align 8
  %sector_num.addr = alloca i64, align 8
  %nb_sectors.addr = alloca i32, align 4
  store ptr %s, ptr %s.addr, align 8
  store i64 %sector_num, ptr %sector_num.addr, align 8
  store i32 %nb_sectors, ptr %nb_sectors.addr, align 4
  %0 = load i64, ptr %sector_num.addr, align 8
  %1 = load i64, ptr %sector_num.addr, align 8
  %2 = load i32, ptr %nb_sectors.addr, align 4
  %conv = zext i32 %2 to i64
  %add = add i64 %1, %conv
  %cmp = icmp ule i64 %0, %add
  br i1 %cmp, label %land.rhs, label %land.end

land.rhs:                                         ; preds = %entry
  %3 = load i64, ptr %sector_num.addr, align 8
  %4 = load i32, ptr %nb_sectors.addr, align 4
  %conv2 = zext i32 %4 to i64
  %add3 = add i64 %3, %conv2
  %5 = load ptr, ptr %s.addr, align 8
  %qdev = getelementptr inbounds %struct.SCSIDiskState, ptr %5, i32 0, i32 0
  %max_lba = getelementptr inbounds %struct.SCSIDevice, ptr %qdev, i32 0, i32 14
  %6 = load i64, ptr %max_lba, align 8
  %add4 = add i64 %6, 1
  %cmp5 = icmp ule i64 %add3, %add4
  br label %land.end

land.end:                                         ; preds = %land.rhs, %entry
  %7 = phi i1 [ false, %entry ], [ %cmp5, %land.rhs ]
  ret i1 %7
}

; Function Attrs: nounwind sspstrong uwtable
define internal i32 @ldl_be_p(ptr noundef %ptr) #0 {
entry:
  %ptr.addr = alloca ptr, align 8
  store ptr %ptr, ptr %ptr.addr, align 8
  %0 = load ptr, ptr %ptr.addr, align 8
  %call = call i32 @ldl_he_p(ptr noundef %0)
  %1 = call i32 @llvm.bswap.i32(i32 %call)
  ret i32 %1
}

; Function Attrs: nounwind sspstrong uwtable
define internal i64 @ldq_be_p(ptr noundef %ptr) #0 {
entry:
  %ptr.addr = alloca ptr, align 8
  store ptr %ptr, ptr %ptr.addr, align 8
  %0 = load ptr, ptr %ptr.addr, align 8
  %call = call i64 @ldq_he_p(ptr noundef %0)
  %1 = call i64 @llvm.bswap.i64(i64 %call)
  ret i64 %1
}

; Function Attrs: nounwind sspstrong uwtable
define internal void @scsi_unmap_complete_noio(ptr noundef %data, i32 noundef %ret) #0 {
entry:
  %data.addr = alloca ptr, align 8
  %ret.addr = alloca i32, align 4
  %r = alloca ptr, align 8
  %s = alloca ptr, align 8
  %tmp = alloca ptr, align 8
  %__mptr = alloca ptr, align 8
  %tmp2 = alloca ptr, align 8
  %sector_num = alloca i64, align 8
  %nb_sectors = alloca i32, align 4
  %sense_code_LBA_OUT_OF_RANGE.coerce = alloca i24, align 4
  store ptr %data, ptr %data.addr, align 8
  store i32 %ret, ptr %ret.addr, align 4
  %0 = load ptr, ptr %data.addr, align 8
  %r1 = getelementptr inbounds %struct.UnmapCBData, ptr %0, i32 0, i32 0
  %1 = load ptr, ptr %r1, align 8
  store ptr %1, ptr %r, align 8
  %2 = load ptr, ptr %r, align 8
  %req = getelementptr inbounds %struct.SCSIDiskReq, ptr %2, i32 0, i32 0
  %dev = getelementptr inbounds %struct.SCSIRequest, ptr %req, i32 0, i32 1
  %3 = load ptr, ptr %dev, align 8
  store ptr %3, ptr %__mptr, align 8
  %4 = load ptr, ptr %__mptr, align 8
  %add.ptr = getelementptr i8, ptr %4, i64 0
  store ptr %add.ptr, ptr %tmp2, align 8
  %5 = load ptr, ptr %tmp2, align 8
  store ptr %5, ptr %tmp, align 8
  %6 = load ptr, ptr %tmp, align 8
  store ptr %6, ptr %s, align 8
  %7 = load ptr, ptr %r, align 8
  %req3 = getelementptr inbounds %struct.SCSIDiskReq, ptr %7, i32 0, i32 0
  %aiocb = getelementptr inbounds %struct.SCSIRequest, ptr %req3, i32 0, i32 18
  %8 = load ptr, ptr %aiocb, align 8
  %cmp = icmp eq ptr %8, null
  br i1 %cmp, label %if.then, label %if.else

if.then:                                          ; preds = %entry
  br label %if.end

if.else:                                          ; preds = %entry
  call void @__assert_fail(ptr noundef @.str.26, ptr noundef @.str.5, i32 noundef 1704, ptr noundef @__PRETTY_FUNCTION__.scsi_unmap_complete_noio) #11
  unreachable

if.end:                                           ; preds = %if.then
  %9 = load ptr, ptr %data.addr, align 8
  %count = getelementptr inbounds %struct.UnmapCBData, ptr %9, i32 0, i32 2
  %10 = load i32, ptr %count, align 8
  %cmp4 = icmp sgt i32 %10, 0
  br i1 %cmp4, label %if.then5, label %if.end44

if.then5:                                         ; preds = %if.end
  %11 = load ptr, ptr %data.addr, align 8
  %inbuf = getelementptr inbounds %struct.UnmapCBData, ptr %11, i32 0, i32 1
  %12 = load ptr, ptr %inbuf, align 8
  %arrayidx = getelementptr i8, ptr %12, i64 0
  %call = call i64 @ldq_be_p(ptr noundef %arrayidx)
  store i64 %call, ptr %sector_num, align 8
  %13 = load ptr, ptr %data.addr, align 8
  %inbuf6 = getelementptr inbounds %struct.UnmapCBData, ptr %13, i32 0, i32 1
  %14 = load ptr, ptr %inbuf6, align 8
  %arrayidx7 = getelementptr i8, ptr %14, i64 8
  %call8 = call i32 @ldl_be_p(ptr noundef %arrayidx7)
  %conv = sext i32 %call8 to i64
  %and = and i64 %conv, 4294967295
  %conv9 = trunc i64 %and to i32
  store i32 %conv9, ptr %nb_sectors, align 4
  %15 = load i64, ptr %sector_num, align 8
  %16 = load ptr, ptr %s, align 8
  %qdev = getelementptr inbounds %struct.SCSIDiskState, ptr %16, i32 0, i32 0
  %blocksize = getelementptr inbounds %struct.SCSIDevice, ptr %qdev, i32 0, i32 12
  %17 = load i32, ptr %blocksize, align 8
  %conv10 = sext i32 %17 to i64
  %div = udiv i64 %conv10, 512
  %mul = mul i64 %15, %div
  %18 = load ptr, ptr %r, align 8
  %sector = getelementptr inbounds %struct.SCSIDiskReq, ptr %18, i32 0, i32 1
  store i64 %mul, ptr %sector, align 8
  %19 = load i32, ptr %nb_sectors, align 4
  %conv11 = zext i32 %19 to i64
  %20 = load ptr, ptr %s, align 8
  %qdev12 = getelementptr inbounds %struct.SCSIDiskState, ptr %20, i32 0, i32 0
  %blocksize13 = getelementptr inbounds %struct.SCSIDevice, ptr %qdev12, i32 0, i32 12
  %21 = load i32, ptr %blocksize13, align 8
  %conv14 = sext i32 %21 to i64
  %div15 = udiv i64 %conv14, 512
  %mul16 = mul i64 %conv11, %div15
  %conv17 = trunc i64 %mul16 to i32
  %22 = load ptr, ptr %r, align 8
  %sector_count = getelementptr inbounds %struct.SCSIDiskReq, ptr %22, i32 0, i32 2
  store i32 %conv17, ptr %sector_count, align 8
  %23 = load ptr, ptr %s, align 8
  %24 = load i64, ptr %sector_num, align 8
  %25 = load i32, ptr %nb_sectors, align 4
  %call18 = call zeroext i1 @check_lba_range(ptr noundef %23, i64 noundef %24, i32 noundef %25)
  br i1 %call18, label %if.end22, label %if.then19

if.then19:                                        ; preds = %if.then5
  %26 = load ptr, ptr %s, align 8
  %qdev20 = getelementptr inbounds %struct.SCSIDiskState, ptr %26, i32 0, i32 0
  %conf = getelementptr inbounds %struct.SCSIDevice, ptr %qdev20, i32 0, i32 4
  %blk = getelementptr inbounds %struct.BlockConf, ptr %conf, i32 0, i32 0
  %27 = load ptr, ptr %blk, align 8
  %call21 = call ptr @blk_get_stats(ptr noundef %27)
  call void @block_acct_invalid(ptr noundef %call21, i32 noundef 5)
  %28 = load ptr, ptr %r, align 8
  call void @llvm.memcpy.p0.p0.i64(ptr align 4 %sense_code_LBA_OUT_OF_RANGE.coerce, ptr align 1 @sense_code_LBA_OUT_OF_RANGE, i64 3, i1 false)
  %29 = load i24, ptr %sense_code_LBA_OUT_OF_RANGE.coerce, align 4
  call void @scsi_check_condition(ptr noundef %28, i24 %29)
  br label %done

if.end22:                                         ; preds = %if.then5
  %30 = load ptr, ptr %s, align 8
  %qdev23 = getelementptr inbounds %struct.SCSIDiskState, ptr %30, i32 0, i32 0
  %conf24 = getelementptr inbounds %struct.SCSIDevice, ptr %qdev23, i32 0, i32 4
  %blk25 = getelementptr inbounds %struct.BlockConf, ptr %conf24, i32 0, i32 0
  %31 = load ptr, ptr %blk25, align 8
  %call26 = call ptr @blk_get_stats(ptr noundef %31)
  %32 = load ptr, ptr %r, align 8
  %acct = getelementptr inbounds %struct.SCSIDiskReq, ptr %32, i32 0, i32 8
  %33 = load ptr, ptr %r, align 8
  %sector_count27 = getelementptr inbounds %struct.SCSIDiskReq, ptr %33, i32 0, i32 2
  %34 = load i32, ptr %sector_count27, align 8
  %conv28 = zext i32 %34 to i64
  %mul29 = mul i64 %conv28, 512
  call void @block_acct_start(ptr noundef %call26, ptr noundef %acct, i64 noundef %mul29, i32 noundef 5)
  %35 = load ptr, ptr %s, align 8
  %qdev30 = getelementptr inbounds %struct.SCSIDiskState, ptr %35, i32 0, i32 0
  %conf31 = getelementptr inbounds %struct.SCSIDevice, ptr %qdev30, i32 0, i32 4
  %blk32 = getelementptr inbounds %struct.BlockConf, ptr %conf31, i32 0, i32 0
  %36 = load ptr, ptr %blk32, align 8
  %37 = load ptr, ptr %r, align 8
  %sector33 = getelementptr inbounds %struct.SCSIDiskReq, ptr %37, i32 0, i32 1
  %38 = load i64, ptr %sector33, align 8
  %mul34 = mul i64 %38, 512
  %39 = load ptr, ptr %r, align 8
  %sector_count35 = getelementptr inbounds %struct.SCSIDiskReq, ptr %39, i32 0, i32 2
  %40 = load i32, ptr %sector_count35, align 8
  %conv36 = zext i32 %40 to i64
  %mul37 = mul i64 %conv36, 512
  %41 = load ptr, ptr %data.addr, align 8
  %call38 = call ptr @blk_aio_pdiscard(ptr noundef %36, i64 noundef %mul34, i64 noundef %mul37, ptr noundef @scsi_unmap_complete, ptr noundef %41)
  %42 = load ptr, ptr %r, align 8
  %req39 = getelementptr inbounds %struct.SCSIDiskReq, ptr %42, i32 0, i32 0
  %aiocb40 = getelementptr inbounds %struct.SCSIRequest, ptr %req39, i32 0, i32 18
  store ptr %call38, ptr %aiocb40, align 8
  %43 = load ptr, ptr %data.addr, align 8
  %count41 = getelementptr inbounds %struct.UnmapCBData, ptr %43, i32 0, i32 2
  %44 = load i32, ptr %count41, align 8
  %dec = add i32 %44, -1
  store i32 %dec, ptr %count41, align 8
  %45 = load ptr, ptr %data.addr, align 8
  %inbuf42 = getelementptr inbounds %struct.UnmapCBData, ptr %45, i32 0, i32 1
  %46 = load ptr, ptr %inbuf42, align 8
  %add.ptr43 = getelementptr i8, ptr %46, i64 16
  store ptr %add.ptr43, ptr %inbuf42, align 8
  br label %return

if.end44:                                         ; preds = %if.end
  %47 = load ptr, ptr %r, align 8
  %req45 = getelementptr inbounds %struct.SCSIDiskReq, ptr %47, i32 0, i32 0
  call void @scsi_req_complete(ptr noundef %req45, i32 noundef 0)
  br label %done

done:                                             ; preds = %if.end44, %if.then19
  %48 = load ptr, ptr %r, align 8
  %req46 = getelementptr inbounds %struct.SCSIDiskReq, ptr %48, i32 0, i32 0
  call void @scsi_req_unref(ptr noundef %req46)
  %49 = load ptr, ptr %data.addr, align 8
  call void @g_free(ptr noundef %49)
  br label %return

return:                                           ; preds = %done, %if.end22
  ret void
}