; Function Attrs: nounwind sspstrong uwtable
define internal fastcc void @scsi_unmap_complete_noio(ptr noundef %data) unnamed_addr #0 {
entry:
  %0 = load ptr, ptr %data, align 8
  %dev = getelementptr inbounds nuw i8, ptr %0, i64 8
  %1 = load ptr, ptr %dev, align 8
  %aiocb = getelementptr inbounds nuw i8, ptr %0, i64 376
  %2 = load ptr, ptr %aiocb, align 8
  %cmp = icmp eq ptr %2, null
  br i1 %cmp, label %if.end, label %if.else

if.else:                                          ; preds = %entry
  tail call void @__assert_fail(ptr noundef nonnull @.str.26, ptr noundef nonnull @.str.5, i32 noundef 1704, ptr noundef nonnull @__PRETTY_FUNCTION__.scsi_unmap_complete_noio) #19
  unreachable

if.end:                                           ; preds = %entry
  %count = getelementptr inbounds nuw i8, ptr %data, i64 16
  %3 = load i32, ptr %count, align 8
  %cmp4 = icmp sgt i32 %3, 0
  br i1 %cmp4, label %if.then5, label %if.end44

if.then5:                                         ; preds = %if.end
  %inbuf = getelementptr inbounds nuw i8, ptr %data, i64 8
  %4 = load ptr, ptr %inbuf, align 8
  %.val = load i64, ptr %4, align 1
  %5 = tail call i64 @llvm.bswap.i64(i64 %.val)
  %arrayidx7 = getelementptr i8, ptr %4, i64 8
  %arrayidx7.val = load i32, ptr %arrayidx7, align 1
  %6 = tail call i32 @llvm.bswap.i32(i32 %arrayidx7.val)
  %blocksize = getelementptr inbounds nuw i8, ptr %1, i64 560
  %7 = load i32, ptr %blocksize, align 8
  %conv10 = sext i32 %7 to i64
  %div26 = lshr i64 %conv10, 9
  %mul = mul i64 %div26, %5
  %sector = getelementptr inbounds nuw i8, ptr %0, i64 408
  store i64 %mul, ptr %sector, align 8
  %8 = load i32, ptr %blocksize, align 8
  %9 = ashr i32 %8, 9
  %conv17 = mul i32 %9, %6
  %sector_count = getelementptr inbounds nuw i8, ptr %0, i64 416
  store i32 %conv17, ptr %sector_count, align 8
  %conv.i = zext i32 %6 to i64
  %add.i = add i64 %5, %conv.i
  %cmp.not.i = icmp ugt i64 %5, %add.i
  br i1 %cmp.not.i, label %if.then19, label %check_lba_range.exit

check_lba_range.exit:                             ; preds = %if.then5
  %max_lba.i = getelementptr inbounds nuw i8, ptr %1, i64 568
  %10 = load i64, ptr %max_lba.i, align 8
  %add4.i = add i64 %10, 1
  %cmp5.i.not = icmp ugt i64 %add.i, %add4.i
  br i1 %cmp5.i.not, label %if.then19, label %if.end22

if.then19:                                        ; preds = %if.then5, %check_lba_range.exit
  %conf = getelementptr inbounds nuw i8, ptr %1, i64 184
  %11 = load ptr, ptr %conf, align 8
  %call21 = tail call ptr @blk_get_stats(ptr noundef %11) #18
  tail call void @block_acct_invalid(ptr noundef %call21, i32 noundef 5) #18
  %sense_code_LBA_OUT_OF_RANGE.coerce.0.copyload = load i24, ptr @sense_code_LBA_OUT_OF_RANGE, align 1
  tail call fastcc void @scsi_check_condition(ptr noundef nonnull %0, i24 %sense_code_LBA_OUT_OF_RANGE.coerce.0.copyload)
  br label %done

if.end22:                                         ; preds = %check_lba_range.exit
  %conf24 = getelementptr inbounds nuw i8, ptr %1, i64 184
  %12 = load ptr, ptr %conf24, align 8
  %call26 = tail call ptr @blk_get_stats(ptr noundef %12) #18
  %acct = getelementptr inbounds nuw i8, ptr %0, i64 488
  %13 = load i32, ptr %sector_count, align 8
  %conv28 = zext i32 %13 to i64
  %mul29 = shl nuw nsw i64 %conv28, 9
  tail call void @block_acct_start(ptr noundef %call26, ptr noundef nonnull %acct, i64 noundef %mul29, i32 noundef 5) #18
  %14 = load ptr, ptr %conf24, align 8
  %15 = load i64, ptr %sector, align 8
  %mul34 = shl i64 %15, 9
  %16 = load i32, ptr %sector_count, align 8
  %conv36 = zext i32 %16 to i64
  %mul37 = shl nuw nsw i64 %conv36, 9
  %call38 = tail call ptr @blk_aio_pdiscard(ptr noundef %14, i64 noundef %mul34, i64 noundef %mul37, ptr noundef nonnull @scsi_unmap_complete, ptr noundef nonnull %data) #18
  store ptr %call38, ptr %aiocb, align 8
  %17 = load i32, ptr %count, align 8
  %dec = add i32 %17, -1
  store i32 %dec, ptr %count, align 8
  %18 = load ptr, ptr %inbuf, align 8
  %add.ptr43 = getelementptr i8, ptr %18, i64 16
  store ptr %add.ptr43, ptr %inbuf, align 8
  br label %return

if.end44:                                         ; preds = %if.end
  tail call void @scsi_req_complete(ptr noundef nonnull %0, i32 noundef 0) #18
  br label %done

done:                                             ; preds = %if.end44, %if.then19
  tail call void @scsi_req_unref(ptr noundef nonnull %0) #18
  tail call void @g_free(ptr noundef nonnull %data) #18
  br label %return

return:                                           ; preds = %done, %if.end22
  ret void
}